; Function Attrs: mustprogress uwtable
define dso_local noalias noundef nonnull ptr @_ZNK11SafeOpFlags5cloneEv(ptr noundef nonnull readonly align 4 captures(none) dereferenceable(8) %0) local_unnamed_addr #7 align 2 personality ptr @__gxx_personality_v0 {
  %2 = tail call noalias noundef nonnull dereferenceable(8) ptr @_Znwm(i64 noundef 8) #22
  %3 = load i8, ptr %0, align 4, !tbaa !21, !range !28, !noundef !29
  store i8 %3, ptr %2, align 4, !tbaa !21
  %4 = getelementptr inbounds nuw i8, ptr %2, i64 1
  %5 = getelementptr inbounds nuw i8, ptr %0, i64 1
  %6 = load i8, ptr %5, align 1, !tbaa !25, !range !28, !noundef !29
  store i8 %6, ptr %4, align 1, !tbaa !25
  %7 = getelementptr inbounds nuw i8, ptr %2, i64 2
  %8 = getelementptr inbounds nuw i8, ptr %0, i64 2
  %9 = load i8, ptr %8, align 2, !tbaa !26, !range !28, !noundef !29
  store i8 %9, ptr %7, align 2, !tbaa !26
  %10 = getelementptr inbounds nuw i8, ptr %2, i64 4
  %11 = getelementptr inbounds nuw i8, ptr %0, i64 4
  %12 = load i32, ptr %11, align 4, !tbaa !27
  store i32 %12, ptr %10, align 4, !tbaa !27
  ret ptr %2
}